; Function Attrs: inlinehint mustprogress uwtable
define internal fastcc void @_ZN19OpenColorIO_v2_5dev12_GLOBAL__N_14loadERKN4YAML4NodeERNS_10AllocationE(ptr noundef nonnull align 8 dereferenceable(64) %0, ptr noundef nonnull writeonly align 4 captures(none) dereferenceable(4) %1) unnamed_addr #5 personality ptr @__gxx_personality_v0 {
  %3 = alloca %"class.std::__cxx11::basic_string", align 8
  call void @llvm.lifetime.start.p0(i64 32, ptr nonnull %3) #29
  %4 = getelementptr inbounds nuw i8, ptr %3, i64 16
  store ptr %4, ptr %3, align 8, !tbaa !62
  %5 = getelementptr inbounds nuw i8, ptr %3, i64 8
  store i64 0, ptr %5, align 8, !tbaa !23
  store i8 0, ptr %4, align 8, !tbaa !15
  invoke fastcc void @_ZN19OpenColorIO_v2_5dev12_GLOBAL__N_14loadERKN4YAML4NodeERNSt7__cxx1112basic_stringIcSt11char_traitsIcESaIcEEE(ptr noundef nonnull align 8 dereferenceable(64) %0, ptr noundef nonnull align 8 dereferenceable(32) %3)
          to label %6 unwind label %16

6:                                                ; preds = %2
  %7 = load ptr, ptr %3, align 8, !tbaa !18
  %8 = invoke noundef i32 @_ZN19OpenColorIO_v2_5dev20AllocationFromStringEPKc(ptr noundef %7)
          to label %9 unwind label %16

9:                                                ; preds = %6
  store i32 %8, ptr %1, align 4, !tbaa !530
  %10 = load ptr, ptr %3, align 8, !tbaa !18
  %11 = icmp eq ptr %10, %4
  br i1 %11, label %_ZNKSt7__cxx1112basic_stringIcSt11char_traitsIcESaIcEE11_M_is_localEv.exit.thread.i.i, label %_ZNKSt7__cxx1112basic_stringIcSt11char_traitsIcESaIcEE11_M_is_localEv.exit.i.i

_ZNKSt7__cxx1112basic_stringIcSt11char_traitsIcESaIcEE11_M_is_localEv.exit.thread.i.i: ; preds = %9
  %12 = load i64, ptr %5, align 8, !tbaa !23
  %13 = icmp ult i64 %12, 16
  call void @llvm.assume(i1 %13)
  br label %_ZNSt7__cxx1112basic_stringIcSt11char_traitsIcESaIcEED2Ev.exit

_ZNKSt7__cxx1112basic_stringIcSt11char_traitsIcESaIcEE11_M_is_localEv.exit.i.i: ; preds = %9
  %14 = load i64, ptr %4, align 8, !tbaa !15
  %15 = add i64 %14, 1
  call void @_ZdlPvm(ptr noundef %10, i64 noundef %15) #30
  br label %_ZNSt7__cxx1112basic_stringIcSt11char_traitsIcESaIcEED2Ev.exit

_ZNSt7__cxx1112basic_stringIcSt11char_traitsIcESaIcEED2Ev.exit: ; preds = %_ZNKSt7__cxx1112basic_stringIcSt11char_traitsIcESaIcEE11_M_is_localEv.exit.thread.i.i, %_ZNKSt7__cxx1112basic_stringIcSt11char_traitsIcESaIcEE11_M_is_localEv.exit.i.i
  call void @llvm.lifetime.end.p0(i64 32, ptr nonnull %3) #29
  ret void

16:                                               ; preds = %6, %2
  %17 = landingpad { ptr, i32 }
          cleanup
  %18 = load ptr, ptr %3, align 8, !tbaa !18
  %19 = icmp eq ptr %18, %4
  br i1 %19, label %_ZNKSt7__cxx1112basic_stringIcSt11char_traitsIcESaIcEE11_M_is_localEv.exit.thread.i.i4, label %_ZNKSt7__cxx1112basic_stringIcSt11char_traitsIcESaIcEE11_M_is_localEv.exit.i.i3

_ZNKSt7__cxx1112basic_stringIcSt11char_traitsIcESaIcEE11_M_is_localEv.exit.thread.i.i4: ; preds = %16
  %20 = load i64, ptr %5, align 8, !tbaa !23
  %21 = icmp ult i64 %20, 16
  call void @llvm.assume(i1 %21)
  br label %_ZNSt7__cxx1112basic_stringIcSt11char_traitsIcESaIcEED2Ev.exit5

_ZNKSt7__cxx1112basic_stringIcSt11char_traitsIcESaIcEE11_M_is_localEv.exit.i.i3: ; preds = %16
  %22 = load i64, ptr %4, align 8, !tbaa !15
  %23 = add i64 %22, 1
  call void @_ZdlPvm(ptr noundef %18, i64 noundef %23) #30
  br label %_ZNSt7__cxx1112basic_stringIcSt11char_traitsIcESaIcEED2Ev.exit5

_ZNSt7__cxx1112basic_stringIcSt11char_traitsIcESaIcEED2Ev.exit5: ; preds = %_ZNKSt7__cxx1112basic_stringIcSt11char_traitsIcESaIcEE11_M_is_localEv.exit.thread.i.i4, %_ZNKSt7__cxx1112basic_stringIcSt11char_traitsIcESaIcEE11_M_is_localEv.exit.i.i3
  call void @llvm.lifetime.end.p0(i64 32, ptr nonnull %3) #29
  resume { ptr, i32 } %17
}